; Function Attrs: mustprogress uwtable
define internal noundef range(i32 0, 3) i32 @_ZN12_GLOBAL__N_115handshaker_nextEP14tsi_handshakerPKhmPS3_PmPP21tsi_handshaker_resultPFv10tsi_resultPvS3_mS7_ESA_PNSt7__cxx1112basic_stringIcSt11char_traitsIcESaIcEEE(ptr noundef readnone %0, ptr noundef readonly captures(none) %1, i64 noundef %2, ptr readnone captures(none) %3, ptr noundef writeonly captures(none) %4, ptr noundef writeonly %5, ptr readnone captures(none) %6, ptr readnone captures(none) %7, ptr noundef %8) #3 personality ptr @__gxx_personality_v0 {
  %10 = alloca %"class.absl::lts_20240722::log_internal::LogMessage", align 8
  %11 = alloca %"class.absl::lts_20240722::log_internal::LogMessage", align 8
  %12 = icmp eq ptr %0, null
  br i1 %12, label %13, label %20

13:                                               ; preds = %9
  call void @llvm.lifetime.start.p0(i64 16, ptr nonnull %11) #11
  call void @_ZN4absl12lts_2024072212log_internal10LogMessageC1EPKciNS2_8ErrorTagE(ptr noundef nonnull align 8 dereferenceable(16) %11, ptr noundef nonnull @.str, i32 noundef 130) #12
  invoke void @_ZN4absl12lts_2024072212log_internal10LogMessage19CopyToEncodedBufferILNS2_10StringTypeE0EEEvSt17basic_string_viewIcSt11char_traitsIcEE(ptr noundef nonnull align 8 dereferenceable(16) %11, i64 38, ptr nonnull @.str.2)
          to label %_ZN4absl12lts_2024072212log_internal10LogMessagelsILi39EEERS2_RAT__Kc.exit unwind label %18

_ZN4absl12lts_2024072212log_internal10LogMessagelsILi39EEERS2_RAT__Kc.exit: ; preds = %13
  call void @_ZN4absl12lts_2024072212log_internal10LogMessageD1Ev(ptr noundef nonnull align 8 dereferenceable(16) %11) #13
  call void @llvm.lifetime.end.p0(i64 16, ptr nonnull %11) #11
  %.not = icmp eq ptr %8, null
  br i1 %.not, label %_ZN12_GLOBAL__N_124create_handshaker_resultEPKhmPP21tsi_handshaker_result.exit, label %14

14:                                               ; preds = %_ZN4absl12lts_2024072212log_internal10LogMessagelsILi39EEERS2_RAT__Kc.exit
  %15 = getelementptr inbounds nuw i8, ptr %8, i64 8
  %16 = load i64, ptr %15, align 8, !tbaa !13
  %17 = call noundef nonnull align 8 dereferenceable(32) ptr @_ZNSt7__cxx1112basic_stringIcSt11char_traitsIcESaIcEE10_M_replaceEmmPKcm(ptr noundef nonnull align 8 dereferenceable(32) %8, i64 noundef 0, i64 noundef %16, ptr noundef nonnull @.str.3, i64 noundef 16)
  br label %_ZN12_GLOBAL__N_124create_handshaker_resultEPKhmPP21tsi_handshaker_result.exit

common.resume:                                    ; preds = %23, %18
  %common.resume.op = phi { ptr, i32 } [ %19, %18 ], [ %24, %23 ]
  resume { ptr, i32 } %common.resume.op

18:                                               ; preds = %13
  %19 = landingpad { ptr, i32 }
          cleanup
  call void @_ZN4absl12lts_2024072212log_internal10LogMessageD1Ev(ptr noundef nonnull align 8 dereferenceable(16) %11) #13
  call void @llvm.lifetime.end.p0(i64 16, ptr nonnull %11) #11
  br label %common.resume

20:                                               ; preds = %9
  store i64 0, ptr %4, align 8, !tbaa !18
  %21 = icmp eq ptr %5, null
  br i1 %21, label %22, label %25

22:                                               ; preds = %20
  call void @llvm.lifetime.start.p0(i64 16, ptr nonnull %10) #11
  call void @_ZN4absl12lts_2024072212log_internal10LogMessageC1EPKciNS2_8ErrorTagE(ptr noundef nonnull align 8 dereferenceable(16) %10, ptr noundef nonnull @.str, i32 noundef 103) #12
  invoke void @_ZN4absl12lts_2024072212log_internal10LogMessage19CopyToEncodedBufferILNS2_10StringTypeE0EEEvSt17basic_string_viewIcSt11char_traitsIcEE(ptr noundef nonnull align 8 dereferenceable(16) %10, i64 47, ptr nonnull @.str.4)
          to label %_ZN4absl12lts_2024072212log_internal10LogMessagelsILi48EEERS2_RAT__Kc.exit.i unwind label %23

_ZN4absl12lts_2024072212log_internal10LogMessagelsILi48EEERS2_RAT__Kc.exit.i: ; preds = %22
  call void @_ZN4absl12lts_2024072212log_internal10LogMessageD1Ev(ptr noundef nonnull align 8 dereferenceable(16) %10) #13
  call void @llvm.lifetime.end.p0(i64 16, ptr nonnull %10) #11
  br label %_ZN12_GLOBAL__N_124create_handshaker_resultEPKhmPP21tsi_handshaker_result.exit

23:                                               ; preds = %22
  %24 = landingpad { ptr, i32 }
          cleanup
  call void @_ZN4absl12lts_2024072212log_internal10LogMessageD1Ev(ptr noundef nonnull align 8 dereferenceable(16) %10) #13
  call void @llvm.lifetime.end.p0(i64 16, ptr nonnull %10) #11
  br label %common.resume

25:                                               ; preds = %20
  %26 = tail call noundef ptr @gpr_zalloc(i64 noundef 24)
  %.not.i = icmp eq i64 %2, 0
  br i1 %.not.i, label %30, label %27

27:                                               ; preds = %25
  %28 = tail call ptr @gpr_malloc(i64 noundef %2)
  %29 = getelementptr inbounds nuw i8, ptr %26, i64 8
  store ptr %28, ptr %29, align 8, !tbaa !19
  tail call void @llvm.memcpy.p0.p0.i64(ptr align 1 %28, ptr readonly align 1 %1, i64 %2, i1 false)
  br label %30

30:                                               ; preds = %27, %25
  %31 = getelementptr inbounds nuw i8, ptr %26, i64 16
  store i64 %2, ptr %31, align 8, !tbaa !23
  store ptr @_ZN12_GLOBAL__N_113result_vtableE, ptr %26, align 8, !tbaa !24
  store ptr %26, ptr %5, align 8, !tbaa !25
  br label %_ZN12_GLOBAL__N_124create_handshaker_resultEPKhmPP21tsi_handshaker_result.exit

_ZN12_GLOBAL__N_124create_handshaker_resultEPKhmPP21tsi_handshaker_result.exit: ; preds = %30, %_ZN4absl12lts_2024072212log_internal10LogMessagelsILi48EEERS2_RAT__Kc.exit.i, %_ZN4absl12lts_2024072212log_internal10LogMessagelsILi39EEERS2_RAT__Kc.exit, %14
  %.0 = phi i32 [ 2, %14 ], [ 2, %_ZN4absl12lts_2024072212log_internal10LogMessagelsILi39EEERS2_RAT__Kc.exit ], [ 0, %_ZN4absl12lts_2024072212log_internal10LogMessagelsILi48EEERS2_RAT__Kc.exit.i ], [ 0, %30 ]
  ret i32 %.0
}